target datalayout = "e-m:e-p270:32:32-p271:32:32-p272:64:64-i64:64-i128:128-f80:128-n8:16:32:64-S128"
target triple = "x86_64-pc-linux-gnu"

%struct.cook = type { ptr, ptr, ptr, ptr, ptr, ptr, %struct.AudioDSPContext, %struct.GetBitContext, i32, i32, %struct.AVLFG, i32, ptr, ptr, ptr, [13 x %struct.VLC], [7 x %struct.VLC], i32, [31 x float], ptr, [8 x i8], [2048 x float], [1024 x float], [1024 x float], [1060 x float], [5 x ptr], i32, [5 x %struct.COOKSubpacket], [8 x i8] }
%struct.AudioDSPContext = type { ptr, ptr, ptr }
%struct.GetBitContext = type { ptr, ptr, i32, i32, i32 }
%struct.AVLFG = type { [64 x i32], i32 }
%struct.VLC = type { i32, ptr, i32, i32 }
%struct.COOKSubpacket = type { i32, i32, i32, i32, i32, i32, i32, i32, i32, i32, %struct.VLC, i32, i32, i32, i32, i32, [1024 x float], [1024 x float], %struct.cook_gains, %struct.cook_gains, [9 x i32], [9 x i32], [9 x i32], [9 x i32] }
%struct.cook_gains = type { ptr, ptr }

@.str.25 = private unnamed_addr constant [15 x i8] c"sqvh VLC init\0A\00", align 1
@vhvlcsize_tab = internal constant [7 x i32] [i32 8, i32 7, i32 7, i32 10, i32 9, i32 9, i32 6], align 16
@cvh_huffsyms = internal constant [7 x ptr] [ptr @cvh_huffsyms0, ptr @cvh_huffsyms1, ptr @cvh_huffsyms2, ptr @cvh_huffsyms3, ptr @cvh_huffsyms4, ptr @cvh_huffsyms5, ptr @cvh_huffsyms6], align 16
@ccpl_huffsyms = internal constant [5 x ptr] [ptr @ccpl_huffsyms2, ptr @ccpl_huffsyms3, ptr @ccpl_huffsyms4, ptr @ccpl_huffsyms5, ptr @ccpl_huffsyms6], align 16
@.str.26 = private unnamed_addr constant [37 x i8] c"subpacket %i Joint-stereo VLC used.\0A\00", align 1
@.str.27 = private unnamed_addr constant [25 x i8] c"VLC tables initialized.\0A\00", align 1

; Function Attrs: cold nounwind optsize uwtable
define internal i32 @init_cook_vlc_tables(ptr noundef %0) #0 {
  %2 = alloca ptr, align 8
  %3 = alloca i32, align 4
  %4 = alloca i32, align 4
  %5 = alloca i32, align 4
  store ptr %0, ptr %2, align 8, !tbaa !29
  call void @llvm.lifetime.start.p0(i64 4, ptr %3) #11
  call void @llvm.lifetime.start.p0(i64 4, ptr %4) #11
  store i32 0, ptr %4, align 4, !tbaa !31
  store i32 0, ptr %3, align 4, !tbaa !31
  br label %6

6:                                                ; preds = %29, %1
  %7 = load i32, ptr %3, align 4, !tbaa !31
  %8 = icmp slt i32 %7, 13
  br i1 %8, label %9, label %32

9:                                                ; preds = %6
  %10 = load ptr, ptr %2, align 8, !tbaa !29
  %11 = getelementptr inbounds nuw %struct.cook, ptr %10, i32 0, i32 15
  %12 = load i32, ptr %3, align 4, !tbaa !31
  %13 = sext i32 %12 to i64
  %14 = getelementptr inbounds [13 x %struct.VLC], ptr %11, i64 0, i64 %13
  %15 = load i32, ptr %3, align 4, !tbaa !31
  %16 = sext i32 %15 to i64
  %17 = getelementptr inbounds [13 x [16 x i8]], ptr @envelope_quant_index_huffcounts, i64 0, i64 %16
  %18 = getelementptr inbounds [16 x i8], ptr %17, i64 0, i64 0
  %19 = load i32, ptr %3, align 4, !tbaa !31
  %20 = sext i32 %19 to i64
  %21 = getelementptr inbounds [13 x [24 x i8]], ptr @envelope_quant_index_huffsyms, i64 0, i64 %20
  %22 = getelementptr inbounds [24 x i8], ptr %21, i64 0, i64 0
  %23 = load ptr, ptr %2, align 8, !tbaa !29
  %24 = getelementptr inbounds nuw %struct.cook, ptr %23, i32 0, i32 5
  %25 = load ptr, ptr %24, align 8, !tbaa !33
  %26 = call i32 @build_vlc(ptr noundef %14, i32 noundef 9, ptr noundef %18, ptr noundef %22, i32 noundef 1, i32 noundef -12, ptr noundef %25) #13
  %27 = load i32, ptr %4, align 4, !tbaa !31
  %28 = or i32 %27, %26
  store i32 %28, ptr %4, align 4, !tbaa !31
  br label %29

29:                                               ; preds = %9
  %30 = load i32, ptr %3, align 4, !tbaa !31
  %31 = add nsw i32 %30, 1
  store i32 %31, ptr %3, align 4, !tbaa !31
  br label %6, !llvm.loop !114

32:                                               ; preds = %6
  %33 = load ptr, ptr %2, align 8, !tbaa !29
  %34 = getelementptr inbounds nuw %struct.cook, ptr %33, i32 0, i32 5
  %35 = load ptr, ptr %34, align 8, !tbaa !33
  call void (ptr, i32, ptr, ...) @av_log(ptr noundef %35, i32 noundef 48, ptr noundef @.str.25)
  store i32 0, ptr %3, align 4, !tbaa !31
  br label %36

36:                                               ; preds = %68, %32
  %37 = load i32, ptr %3, align 4, !tbaa !31
  %38 = icmp slt i32 %37, 7
  br i1 %38, label %39, label %71

39:                                               ; preds = %36
  call void @llvm.lifetime.start.p0(i64 4, ptr %5) #11
  %40 = load i32, ptr %3, align 4, !tbaa !31
  %41 = icmp eq i32 %40, 3
  %42 = zext i1 %41 to i32
  %43 = add nsw i32 1, %42
  store i32 %43, ptr %5, align 4, !tbaa !31
  %44 = load ptr, ptr %2, align 8, !tbaa !29
  %45 = getelementptr inbounds nuw %struct.cook, ptr %44, i32 0, i32 16
  %46 = load i32, ptr %3, align 4, !tbaa !31
  %47 = sext i32 %46 to i64
  %48 = getelementptr inbounds [7 x %struct.VLC], ptr %45, i64 0, i64 %47
  %49 = load i32, ptr %3, align 4, !tbaa !31
  %50 = sext i32 %49 to i64
  %51 = getelementptr inbounds [7 x i32], ptr @vhvlcsize_tab, i64 0, i64 %50
  %52 = load i32, ptr %51, align 4, !tbaa !31
  %53 = load i32, ptr %3, align 4, !tbaa !31
  %54 = sext i32 %53 to i64
  %55 = getelementptr inbounds [7 x [16 x i8]], ptr @cvh_huffcounts, i64 0, i64 %54
  %56 = getelementptr inbounds [16 x i8], ptr %55, i64 0, i64 0
  %57 = load i32, ptr %3, align 4, !tbaa !31
  %58 = sext i32 %57 to i64
  %59 = getelementptr inbounds [7 x ptr], ptr @cvh_huffsyms, i64 0, i64 %58
  %60 = load ptr, ptr %59, align 8, !tbaa !115
  %61 = load i32, ptr %5, align 4, !tbaa !31
  %62 = load ptr, ptr %2, align 8, !tbaa !29
  %63 = getelementptr inbounds nuw %struct.cook, ptr %62, i32 0, i32 5
  %64 = load ptr, ptr %63, align 8, !tbaa !33
  %65 = call i32 @build_vlc(ptr noundef %48, i32 noundef %52, ptr noundef %56, ptr noundef %60, i32 noundef %61, i32 noundef 0, ptr noundef %64) #13
  %66 = load i32, ptr %4, align 4, !tbaa !31
  %67 = or i32 %66, %65
  store i32 %67, ptr %4, align 4, !tbaa !31
  call void @llvm.lifetime.end.p0(i64 4, ptr %5) #11
  br label %68

68:                                               ; preds = %39
  %69 = load i32, ptr %3, align 4, !tbaa !31
  %70 = add nsw i32 %69, 1
  store i32 %70, ptr %3, align 4, !tbaa !31
  br label %36, !llvm.loop !116

71:                                               ; preds = %36
  store i32 0, ptr %3, align 4, !tbaa !31
  br label %72

72:                                               ; preds = %127, %71
  %73 = load i32, ptr %3, align 4, !tbaa !31
  %74 = load ptr, ptr %2, align 8, !tbaa !29
  %75 = getelementptr inbounds nuw %struct.cook, ptr %74, i32 0, i32 26
  %76 = load i32, ptr %75, align 8, !tbaa !65
  %77 = icmp slt i32 %73, %76
  br i1 %77, label %78, label %130

78:                                               ; preds = %72
  %79 = load ptr, ptr %2, align 8, !tbaa !29
  %80 = getelementptr inbounds nuw %struct.cook, ptr %79, i32 0, i32 27
  %81 = load i32, ptr %3, align 4, !tbaa !31
  %82 = sext i32 %81 to i64
  %83 = getelementptr inbounds [5 x %struct.COOKSubpacket], ptr %80, i64 0, i64 %82
  %84 = getelementptr inbounds nuw %struct.COOKSubpacket, ptr %83, i32 0, i32 11
  %85 = load i32, ptr %84, align 8, !tbaa !56
  %86 = icmp eq i32 %85, 1
  br i1 %86, label %87, label %126

87:                                               ; preds = %78
  %88 = load ptr, ptr %2, align 8, !tbaa !29
  %89 = getelementptr inbounds nuw %struct.cook, ptr %88, i32 0, i32 27
  %90 = load i32, ptr %3, align 4, !tbaa !31
  %91 = sext i32 %90 to i64
  %92 = getelementptr inbounds [5 x %struct.COOKSubpacket], ptr %89, i64 0, i64 %91
  %93 = getelementptr inbounds nuw %struct.COOKSubpacket, ptr %92, i32 0, i32 10
  %94 = load ptr, ptr %2, align 8, !tbaa !29
  %95 = getelementptr inbounds nuw %struct.cook, ptr %94, i32 0, i32 27
  %96 = load i32, ptr %3, align 4, !tbaa !31
  %97 = sext i32 %96 to i64
  %98 = getelementptr inbounds [5 x %struct.COOKSubpacket], ptr %95, i64 0, i64 %97
  %99 = getelementptr inbounds nuw %struct.COOKSubpacket, ptr %98, i32 0, i32 6
  %100 = load i32, ptr %99, align 8, !tbaa !50
  %101 = sub nsw i32 %100, 2
  %102 = sext i32 %101 to i64
  %103 = getelementptr inbounds [5 x [16 x i8]], ptr @ccpl_huffcounts, i64 0, i64 %102
  %104 = getelementptr inbounds [16 x i8], ptr %103, i64 0, i64 0
  %105 = load ptr, ptr %2, align 8, !tbaa !29
  %106 = getelementptr inbounds nuw %struct.cook, ptr %105, i32 0, i32 27
  %107 = load i32, ptr %3, align 4, !tbaa !31
  %108 = sext i32 %107 to i64
  %109 = getelementptr inbounds [5 x %struct.COOKSubpacket], ptr %106, i64 0, i64 %108
  %110 = getelementptr inbounds nuw %struct.COOKSubpacket, ptr %109, i32 0, i32 6
  %111 = load i32, ptr %110, align 8, !tbaa !50
  %112 = sub nsw i32 %111, 2
  %113 = sext i32 %112 to i64
  %114 = getelementptr inbounds [5 x ptr], ptr @ccpl_huffsyms, i64 0, i64 %113
  %115 = load ptr, ptr %114, align 8, !tbaa !82
  %116 = load ptr, ptr %2, align 8, !tbaa !29
  %117 = getelementptr inbounds nuw %struct.cook, ptr %116, i32 0, i32 5
  %118 = load ptr, ptr %117, align 8, !tbaa !33
  %119 = call i32 @build_vlc(ptr noundef %93, i32 noundef 6, ptr noundef %104, ptr noundef %115, i32 noundef 1, i32 noundef 0, ptr noundef %118) #13
  %120 = load i32, ptr %4, align 4, !tbaa !31
  %121 = or i32 %120, %119
  store i32 %121, ptr %4, align 4, !tbaa !31
  %122 = load ptr, ptr %2, align 8, !tbaa !29
  %123 = getelementptr inbounds nuw %struct.cook, ptr %122, i32 0, i32 5
  %124 = load ptr, ptr %123, align 8, !tbaa !33
  %125 = load i32, ptr %3, align 4, !tbaa !31
  call void (ptr, i32, ptr, ...) @av_log(ptr noundef %124, i32 noundef 48, ptr noundef @.str.26, i32 noundef %125)
  br label %126

126:                                              ; preds = %87, %78
  br label %127

127:                                              ; preds = %126
  %128 = load i32, ptr %3, align 4, !tbaa !31
  %129 = add nsw i32 %128, 1
  store i32 %129, ptr %3, align 4, !tbaa !31
  br label %72, !llvm.loop !117

130:                                              ; preds = %72
  %131 = load ptr, ptr %2, align 8, !tbaa !29
  %132 = getelementptr inbounds nuw %struct.cook, ptr %131, i32 0, i32 5
  %133 = load ptr, ptr %132, align 8, !tbaa !33
  call void (ptr, i32, ptr, ...) @av_log(ptr noundef %133, i32 noundef 48, ptr noundef @.str.27)
  %134 = load i32, ptr %4, align 4, !tbaa !31
  call void @llvm.lifetime.end.p0(i64 4, ptr %4) #11
  call void @llvm.lifetime.end.p0(i64 4, ptr %3) #11
  ret i32 %134
}