; Function Attrs: cold nounwind optsize uwtable
define internal fastcc i32 @init_cook_vlc_tables(ptr noundef %0) unnamed_addr #0 {
  %2 = getelementptr inbounds nuw i8, ptr %0, i64 400
  %3 = getelementptr inbounds nuw i8, ptr %0, i64 40
  br label %4

4:                                                ; preds = %1, %4
  %indvars.iv = phi i64 [ 0, %1 ], [ %indvars.iv.next, %4 ]
  %.03639 = phi i32 [ 0, %1 ], [ %10, %4 ]
  %5 = getelementptr inbounds nuw [13 x %struct.VLC], ptr %2, i64 0, i64 %indvars.iv
  %6 = getelementptr inbounds nuw [13 x [16 x i8]], ptr @envelope_quant_index_huffcounts, i64 0, i64 %indvars.iv
  %7 = getelementptr inbounds nuw [13 x [24 x i8]], ptr @envelope_quant_index_huffsyms, i64 0, i64 %indvars.iv
  %8 = load ptr, ptr %3, align 8, !tbaa !28
  %9 = tail call fastcc i32 @build_vlc(ptr noundef nonnull %5, i32 noundef 9, ptr noundef nonnull %6, ptr noundef nonnull %7, i32 noundef 1, i32 noundef -12, ptr noundef %8) #15
  %10 = or i32 %9, %.03639
  %indvars.iv.next = add nuw nsw i64 %indvars.iv, 1
  %exitcond.not = icmp eq i64 %indvars.iv.next, 13
  br i1 %exitcond.not, label %11, label %4, !llvm.loop !108

11:                                               ; preds = %4
  %12 = load ptr, ptr %3, align 8, !tbaa !28
  tail call void (ptr, i32, ptr, ...) @av_log(ptr noundef %12, i32 noundef 48, ptr noundef nonnull @.str.25) #13
  %13 = getelementptr inbounds nuw i8, ptr %0, i64 712
  br label %18

.preheader:                                       ; preds = %18
  %14 = getelementptr inbounds nuw i8, ptr %0, i64 21688
  %15 = load i32, ptr %14, align 8, !tbaa !62
  %16 = icmp sgt i32 %15, 0
  br i1 %16, label %.lr.ph, label %._crit_edge

.lr.ph:                                           ; preds = %.preheader
  %17 = getelementptr inbounds nuw i8, ptr %0, i64 21696
  br label %30

18:                                               ; preds = %11, %18
  %indvars.iv47 = phi i64 [ 0, %11 ], [ %indvars.iv.next48, %18 ]
  %.13741 = phi i32 [ %10, %11 ], [ %29, %18 ]
  %19 = icmp eq i64 %indvars.iv47, 3
  %20 = select i1 %19, i32 2, i32 1
  %21 = getelementptr inbounds nuw [7 x %struct.VLC], ptr %13, i64 0, i64 %indvars.iv47
  %22 = getelementptr inbounds nuw [7 x i32], ptr @vhvlcsize_tab, i64 0, i64 %indvars.iv47
  %23 = load i32, ptr %22, align 4, !tbaa !92
  %24 = getelementptr inbounds nuw [7 x [16 x i8]], ptr @cvh_huffcounts, i64 0, i64 %indvars.iv47
  %25 = getelementptr inbounds nuw [7 x ptr], ptr @cvh_huffsyms, i64 0, i64 %indvars.iv47
  %26 = load ptr, ptr %25, align 8, !tbaa !109
  %27 = load ptr, ptr %3, align 8, !tbaa !28
  %28 = tail call fastcc i32 @build_vlc(ptr noundef nonnull %21, i32 noundef %23, ptr noundef nonnull %24, ptr noundef %26, i32 noundef %20, i32 noundef 0, ptr noundef %27) #15
  %29 = or i32 %28, %.13741
  %indvars.iv.next48 = add nuw nsw i64 %indvars.iv47, 1
  %exitcond50.not = icmp eq i64 %indvars.iv.next48, 7
  br i1 %exitcond50.not, label %.preheader, label %18, !llvm.loop !110

30:                                               ; preds = %.lr.ph, %50
  %31 = phi i32 [ %15, %.lr.ph ], [ %51, %50 ]
  %indvars.iv51 = phi i64 [ 0, %.lr.ph ], [ %indvars.iv.next52, %50 ]
  %.23843 = phi i32 [ %29, %.lr.ph ], [ %.3, %50 ]
  %32 = getelementptr inbounds nuw [5 x %struct.COOKSubpacket], ptr %17, i64 0, i64 %indvars.iv51
  %33 = getelementptr inbounds nuw i8, ptr %32, i64 64
  %34 = load i32, ptr %33, align 8, !tbaa !54
  %35 = icmp eq i32 %34, 1
  br i1 %35, label %36, label %50

36:                                               ; preds = %30
  %37 = getelementptr inbounds nuw i8, ptr %32, i64 40
  %38 = getelementptr inbounds nuw i8, ptr %32, i64 24
  %39 = load i32, ptr %38, align 8, !tbaa !48
  %40 = add nsw i32 %39, -2
  %41 = sext i32 %40 to i64
  %42 = getelementptr inbounds [5 x [16 x i8]], ptr @ccpl_huffcounts, i64 0, i64 %41
  %43 = getelementptr inbounds [5 x ptr], ptr @ccpl_huffsyms, i64 0, i64 %41
  %44 = load ptr, ptr %43, align 8, !tbaa !111
  %45 = load ptr, ptr %3, align 8, !tbaa !28
  %46 = tail call fastcc i32 @build_vlc(ptr noundef nonnull %37, i32 noundef 6, ptr noundef nonnull %42, ptr noundef %44, i32 noundef 1, i32 noundef 0, ptr noundef %45) #15
  %47 = or i32 %46, %.23843
  %48 = load ptr, ptr %3, align 8, !tbaa !28
  %49 = trunc nuw nsw i64 %indvars.iv51 to i32
  tail call void (ptr, i32, ptr, ...) @av_log(ptr noundef %48, i32 noundef 48, ptr noundef nonnull @.str.26, i32 noundef %49) #13
  %.pre = load i32, ptr %14, align 8, !tbaa !62
  br label %50

50:                                               ; preds = %30, %36
  %51 = phi i32 [ %.pre, %36 ], [ %31, %30 ]
  %.3 = phi i32 [ %47, %36 ], [ %.23843, %30 ]
  %indvars.iv.next52 = add nuw nsw i64 %indvars.iv51, 1
  %52 = sext i32 %51 to i64
  %53 = icmp slt i64 %indvars.iv.next52, %52
  br i1 %53, label %30, label %._crit_edge, !llvm.loop !112

._crit_edge:                                      ; preds = %50, %.preheader
  %.238.lcssa = phi i32 [ %29, %.preheader ], [ %.3, %50 ]
  %54 = load ptr, ptr %3, align 8, !tbaa !28
  tail call void (ptr, i32, ptr, ...) @av_log(ptr noundef %54, i32 noundef 48, ptr noundef nonnull @.str.27) #13
  ret i32 %.238.lcssa
}